Certificate:
    Data:
        Version: 3 (0x2)
        Serial Number: 6 (0x6)
    Signature Algorithm: sha256WithRSAEncryption
        Issuer: C=US, ST=Utah, L=Provo, O=TrustBase Associates, OU=Public Relations, CN=owntrust.org/emailAddress=contact@owntrust.org
        Validity
            Not Before: Jun 13 00:21:21 2018 GMT
            Not After : Jun 13 00:21:21 2019 GMT
        Subject: C=US, ST=Utah, L=Provo, O=US Citizens, CN=Mark ONeill
        Subject Public Key Info:
            Public Key Algorithm: rsaEncryption
                Public-Key: (2048 bit)
                Modulus:
                    00:d2:1d:6e:d5:b2:49:4f:dd:69:24:48:80:a3:34:
                    2c:a3:c4:1d:a3:30:96:69:cf:a7:08:ae:40:d5:77:
                    76:66:d9:a0:5b:d3:a6:ce:d8:16:d0:7e:d8:26:5e:
                    b1:a2:e4:bc:f0:4b:a4:9a:0f:4e:a8:95:e4:62:66:
                    de:07:ae:c5:0e:a1:a3:91:ee:7c:dc:87:91:7c:97:
                    7d:ef:91:c2:1c:d8:d7:ed:21:64:ce:68:79:6a:29:
                    fd:fe:bc:9b:b0:05:3e:23:ca:81:c7:f7:b2:3b:9c:
                    33:88:0c:7b:db:b3:01:a8:74:65:b3:9b:6f:fe:55:
                    47:3a:43:ac:21:85:f2:9c:78:70:ee:3a:75:6b:f0:
                    83:41:48:10:c6:de:6a:92:5d:6b:17:c0:1c:6c:d4:
                    63:53:41:b5:38:05:85:b8:52:b3:f9:b6:2c:1c:90:
                    41:90:57:f0:4a:1a:ac:db:65:f0:a5:5e:97:33:74:
                    04:23:ff:3a:cd:ae:01:58:02:6b:8e:54:36:15:31:
                    39:da:da:09:88:4d:55:de:e8:4c:6a:eb:0d:f6:37:
                    f0:1d:ff:ed:ee:b7:61:2d:6a:b2:6d:78:27:30:1b:
                    67:d3:44:4f:00:b9:5f:74:08:5e:44:6a:74:e7:de:
                    9b:19:c6:ba:3c:92:ef:69:43:26:31:5c:d5:de:08:
                    dd:c7
                Exponent: 65537 (0x10001)
        X509v3 extensions:
            X509v3 Subject Key Identifier: 
                08:FE:3F:DF:B1:34:3C:9E:46:B1:BC:A2:98:D0:D3:06:F4:86:D2:60
            X509v3 Authority Key Identifier: 
                keyid:81:B6:87:DB:9E:45:9B:FC:E3:DF:6B:76:97:46:6A:B0:D5:BE:D4:6E

            X509v3 Basic Constraints: 
                CA:FALSE
            X509v3 Key Usage: 
                Digital Signature, Key Encipherment
            Netscape Comment: 
                SSA Generated Certificate
            X509v3 Subject Alternative Name: 
                DNS:openrebellion.com
    Signature Algorithm: sha256WithRSAEncryption
         8d:ec:52:8c:70:7d:11:61:e3:0a:3a:c5:42:30:a7:ac:c4:33:
         dc:29:02:2b:17:f5:fa:bc:69:ae:b2:6d:87:71:0c:97:d4:41:
         34:61:3f:d7:f3:b9:ac:aa:ca:7c:ff:ef:22:5c:c0:09:f3:13:
         bb:d8:0a:e6:8c:28:ee:45:19:64:d9:a8:64:1d:58:0f:4f:8a:
         2d:9e:6b:18:7f:f5:fc:c5:db:73:24:6d:b5:bd:4f:16:41:58:
         d3:f2:22:7a:5a:5c:f6:ac:db:3e:f5:7b:e4:9a:0f:11:8d:19:
         55:39:48:98:8e:30:52:ad:ef:ff:77:6c:22:37:91:c5:79:a4:
         10:54:1d:fa:f8:e5:a2:df:34:10:0c:af:30:5e:59:e1:56:bb:
         58:55:7e:35:4e:fe:c6:36:ea:eb:84:bb:41:03:6d:79:2a:24:
         84:f1:46:2d:a6:6a:6f:9b:6c:9e:3d:e5:25:f6:07:42:1b:d4:
         c2:5c:de:84:ac:5d:67:ae:b1:a1:e3:25:1f:29:76:fa:c2:7e:
         a2:5a:97:39:f6:7d:61:4f:67:7e:ab:2f:9b:17:81:62:ee:17:
         34:80:da:e3:88:c5:e5:5f:03:ed:c6:d5:4c:28:a3:92:4b:2d:
         5d:7a:74:f0:6f:96:90:a6:74:1b:dd:12:62:bb:3a:8c:e1:6d:
         52:51:b7:aa:b1:e9:4e:c4:5f:f1:63:70:d6:14:da:f8:1d:be:
         45:45:f4:99:d3:c9:f2:bc:1f:1b:8c:28:e8:81:38:52:80:46:
         4a:e9:94:b5:df:ac:e6:3b:49:47:38:9f:07:3e:05:30:1b:09:
         46:d0:f1:92:8c:61:28:b7:3d:da:28:57:30:02:cd:2a:54:a7:
         75:3b:62:c3:1c:a9:d3:70:2f:dd:19:af:3c:48:f5:42:c2:bf:
         ac:45:02:d9:ef:99:f2:d1:df:b5:19:40:eb:07:4c:4b:4e:b7:
         95:27:3a:79:58:94:28:d2:fc:2b:19:dd:dc:2e:32:ab:7d:ac:
         cd:a9:f5:2e:86:0b:f6:a8:19:5e:f0:70:18:fb:c7:9e:da:75:
         e6:c3:88:6e:bc:2b:cc:61:65:df:a1:0d:cb:67:46:8a:21:94:
         23:2f:29:97:66:45:bf:44:53:ac:2d:5b:3a:dd:8f:e6:f7:66:
         12:f6:23:8f:e0:0c:6f:ad:8c:32:66:94:62:ac:45:c0:cb:06:
         d5:49:28:03:f8:b6:9b:ea:87:ca:77:04:1b:a2:ee:9b:1d:4a:
         db:d6:ea:f0:39:e9:f8:9f:53:a0:79:d1:0f:25:20:b6:86:55:
         fa:16:38:49:b1:0e:30:80:b4:b0:41:14:8b:ac:a6:9c:19:da:
         38:e1:32:64:78:b1:8a:7d
-----BEGIN CERTIFICATE-----
MIIFGjCCAwKgAwIBAgIBBjANBgkqhkiG9w0BAQsFADCBojELMAkGA1UEBhMCVVMx
DTALBgNVBAgMBFV0YWgxDjAMBgNVBAcMBVByb3ZvMR0wGwYDVQQKDBRUcnVzdEJh
c2UgQXNzb2NpYXRlczEZMBcGA1UECwwQUHVibGljIFJlbGF0aW9uczEVMBMGA1UE
AwwMb3dudHJ1c3Qub3JnMSMwIQYJKoZIhvcNAQkBFhRjb250YWN0QG93bnRydXN0
Lm9yZzAeFw0xODA2MTMwMDIxMjFaFw0xOTA2MTMwMDIxMjFaMFgxCzAJBgNVBAYT
AlVTMQ0wCwYDVQQIDARVdGFoMQ4wDAYDVQQHDAVQcm92bzEUMBIGA1UECgwLVVMg
Q2l0aXplbnMxFDASBgNVBAMMC01hcmsgT05laWxsMIIBIjANBgkqhkiG9w0BAQEF
AAOCAQ8AMIIBCgKCAQEA0h1u1bJJT91pJEiAozQso8QdozCWac+nCK5A1Xd2Ztmg
W9OmztgW0H7YJl6xouS88Eukmg9OqJXkYmbeB67FDqGjke583IeRfJd975HCHNjX
7SFkzmh5ain9/rybsAU+I8qBx/eyO5wziAx727MBqHRls5tv/lVHOkOsIYXynHhw
7jp1a/CDQUgQxt5qkl1rF8AcbNRjU0G1OAWFuFKz+bYsHJBBkFfwShqs22XwpV6X
M3QEI/86za4BWAJrjlQ2FTE52toJiE1V3uhMausN9jfwHf/t7rdhLWqybXgnMBtn
00RPALlfdAheRGp0596bGca6PJLvaUMmMVzV3gjdxwIDAQABo4GjMIGgMB0GA1Ud
DgQWBBQI/j/fsTQ8nkaxvKKY0NMG9IbSYDAfBgNVHSMEGDAWgBSBtofbnkWb/OPf
a3aXRmqw1b7UbjAJBgNVHRMEAjAAMAsGA1UdDwQEAwIFoDAoBglghkgBhvhCAQ0E
GxYZU1NBIEdlbmVyYXRlZCBDZXJ0aWZpY2F0ZTAcBgNVHREEFTATghFvcGVucmVi
ZWxsaW9uLmNvbTANBgkqhkiG9w0BAQsFAAOCAgEAjexSjHB9EWHjCjrFQjCnrMQz
3CkCKxf1+rxprrJth3EMl9RBNGE/1/O5rKrKfP/vIlzACfMTu9gK5owo7kUZZNmo
ZB1YD0+KLZ5rGH/1/MXbcyRttb1PFkFY0/Iielpc9qzbPvV75JoPEY0ZVTlImI4w
Uq3v/3dsIjeRxXmkEFQd+vjlot80EAyvMF5Z4Va7WFV+NU7+xjbq64S7QQNteSok
hPFGLaZqb5tsnj3lJfYHQhvUwlzehKxdZ66xoeMlHyl2+sJ+olqXOfZ9YU9nfqsv
mxeBYu4XNIDa44jF5V8D7cbVTCijkkstXXp08G+WkKZ0G90SYrs6jOFtUlG3qrHp
TsRf8WNw1hTa+B2+RUX0mdPJ8rwfG4wo6IE4UoBGSumUtd+s5jtJRzifBz4FMBsJ
RtDxkoxhKLc92ihXMALNKlSndTtiwxyp03Av3RmvPEj1QsK/rEUC2e+Z8tHftRlA
6wdMS063lSc6eViUKNL8Kxnd3C4yq32szan1LoYL9qgZXvBwGPvHntp15sOIbrwr
zGFl36ENy2dGiiGUIy8pl2ZFv0RTrC1bOt2P5vdmEvYjj+AMb62MMmaUYqxFwMsG
1UkoA/i2m+qHyncEG6Lumx1K29bq8Dnp+J9ToHnRDyUgtoZV+hY4SbEOMIC0sEEU
i6ymnBnaOOEyZHixin0=
-----END CERTIFICATE-----
