Certificate:
    Data:
        Version: 3 (0x2)
        Serial Number: 9 (0x9)
    Signature Algorithm: sha256WithRSAEncryption
        Issuer: C=US, ST=Utah, L=Provo, O=TrustBase Associates, OU=Public Relations, CN=owntrust.org/emailAddress=contact@owntrust.org
        Validity
            Not Before: Jun 20 17:31:22 2018 GMT
            Not After : Jun 30 17:31:22 2019 GMT
        Subject: C=US, ST=Utah, L=Provo, O=BYU, CN=testshop.com
        Subject Public Key Info:
            Public Key Algorithm: rsaEncryption
                Public-Key: (2048 bit)
                Modulus:
                    00:d2:c0:79:01:c7:51:a8:db:23:88:cb:26:14:71:
                    14:70:a6:42:47:c9:29:c7:7e:e2:f8:d8:0e:22:31:
                    95:03:16:ea:2c:09:97:9c:55:29:72:bd:de:e3:f0:
                    4b:88:b2:2b:85:da:56:13:fc:c0:bb:8c:ec:e9:62:
                    83:76:3d:a5:b1:48:f5:b2:a4:a0:df:90:2d:34:fa:
                    c6:89:cc:c3:b9:c9:2b:f1:f6:01:76:66:a0:d0:d6:
                    09:c6:1a:b3:6e:03:8a:f5:98:b5:a4:c2:2e:b1:76:
                    57:87:8d:f7:3f:dd:f3:a8:33:22:d9:12:aa:53:e1:
                    0f:c3:75:c6:35:aa:e7:ad:02:8e:28:e3:76:f0:63:
                    99:c4:12:67:69:2f:73:36:00:27:50:93:22:e3:b2:
                    e9:12:33:58:af:70:35:c2:86:70:b0:e9:47:5a:e5:
                    65:a7:8f:65:84:4e:b4:2c:21:ea:a2:05:29:ba:d9:
                    76:a5:54:14:ac:2e:8f:90:a3:04:0c:54:68:05:c5:
                    bb:80:c6:fe:85:d8:f8:a2:65:e4:9d:3b:92:f0:dc:
                    c0:78:24:5a:0c:39:cc:34:02:16:23:8a:63:97:f3:
                    ab:f7:b6:c6:88:81:35:46:d3:c1:30:7e:b8:a5:f0:
                    5c:b9:15:81:3a:ba:d1:bf:3c:da:fc:7d:63:a1:6c:
                    26:f9
                Exponent: 65537 (0x10001)
        X509v3 extensions:
            X509v3 Subject Key Identifier: 
                54:E8:16:CD:47:79:51:16:39:45:F3:A5:9B:C6:64:45:A6:C8:34:F8
            X509v3 Authority Key Identifier: 
                keyid:66:8D:73:98:8E:86:D8:6B:29:2E:6D:C0:25:A6:9E:EF:3A:33:60:30

            X509v3 Basic Constraints: 
                CA:FALSE
            X509v3 Key Usage: 
                Digital Signature, Key Encipherment
            Netscape Comment: 
                SSA Generated Certificate
            X509v3 Subject Alternative Name: 
                DNS:testshop.com, DNS:www.testshop.com, DNS:*.testshop.com
    Signature Algorithm: sha256WithRSAEncryption
         16:07:ba:28:21:6e:cc:e8:f2:ff:b3:05:0e:f5:0d:b0:eb:60:
         1a:9a:cd:d7:db:5a:22:48:f9:f2:a3:a9:a3:f6:51:52:fc:df:
         03:a4:bc:a9:53:dc:3c:28:7d:05:4c:dc:80:a9:31:ad:4f:7d:
         9c:5a:1d:a7:0d:7e:36:aa:21:7a:14:94:b8:6f:82:6c:45:55:
         58:ee:29:d5:8b:79:61:87:77:bb:be:a9:ee:6e:80:04:ec:15:
         cb:c1:7f:ae:36:6b:e1:b1:69:bc:49:21:46:0c:50:6a:44:1a:
         91:67:86:cb:62:97:b8:e4:40:59:70:ae:02:fd:68:43:e4:9b:
         da:b2:9a:e0:e1:f2:aa:14:3b:a1:3b:88:7a:a7:5e:83:6e:91:
         2f:90:3a:0b:3b:9f:5f:75:5e:90:f2:2c:8d:f7:d5:3f:0c:d2:
         06:d9:2d:71:34:b3:eb:9a:2a:34:35:bf:3d:93:ae:2f:5b:ad:
         a8:df:4c:0f:11:85:5a:16:4a:27:86:e5:38:aa:96:9c:d9:e9:
         d1:88:dc:71:33:55:ac:87:4d:42:f1:2e:92:61:3b:fc:12:47:
         de:0d:32:5e:a1:48:3d:13:34:32:f0:c3:39:e3:14:8c:f8:a4:
         9c:96:22:ed:2f:13:9d:bc:9d:a3:61:a5:4d:5c:87:f6:a9:da:
         14:e0:4a:ae:43:c8:0c:ad:c2:40:75:7f:95:81:66:59:3f:fb:
         f0:5f:6d:b4:9d:f7:11:49:ff:dc:24:d7:cd:fe:13:74:e3:16:
         02:de:b4:e4:39:86:fb:61:cc:17:28:a8:16:52:ac:81:d1:8a:
         9b:71:7f:6e:68:03:77:14:0d:d2:aa:76:ad:aa:94:d5:0b:40:
         de:13:8b:7c:65:32:fa:3e:b1:07:eb:54:5b:0b:e4:e5:6f:36:
         f2:6d:f2:cc:f4:56:90:cd:da:df:cc:5a:23:6a:27:50:f0:60:
         fd:c6:56:2d:cb:55:55:f1:25:44:55:48:28:01:6f:bf:8b:ed:
         1a:21:e3:4e:8f:40:b5:3e:b2:14:f7:ad:4b:de:52:2a:3e:de:
         96:bb:e8:c2:c0:21:b4:d1:b3:bf:86:26:5a:af:7c:ea:3d:ff:
         f3:bc:d5:61:a3:12:fd:91:1c:32:2b:ba:0d:13:60:32:f5:ed:
         5e:17:7a:c7:b1:40:b1:d7:3f:cb:62:bc:49:e5:57:e8:0a:0f:
         b3:8e:36:a9:8c:06:00:ce:ae:a5:e2:1c:08:e9:09:ac:59:ca:
         a0:d4:c1:25:72:d9:0b:53:42:ec:73:15:9f:ab:19:ce:ed:9a:
         03:96:6a:70:4e:da:d1:73:e2:37:3a:2c:9d:10:ff:f2:58:dc:
         b7:f1:75:13:e5:58:dc:d0
-----BEGIN CERTIFICATE-----
MIIFMDCCAxigAwIBAgIBCTANBgkqhkiG9w0BAQsFADCBojELMAkGA1UEBhMCVVMx
DTALBgNVBAgMBFV0YWgxDjAMBgNVBAcMBVByb3ZvMR0wGwYDVQQKDBRUcnVzdEJh
c2UgQXNzb2NpYXRlczEZMBcGA1UECwwQUHVibGljIFJlbGF0aW9uczEVMBMGA1UE
AwwMb3dudHJ1c3Qub3JnMSMwIQYJKoZIhvcNAQkBFhRjb250YWN0QG93bnRydXN0
Lm9yZzAeFw0xODA2MjAxNzMxMjJaFw0xOTA2MzAxNzMxMjJaMFExCzAJBgNVBAYT
AlVTMQ0wCwYDVQQIDARVdGFoMQ4wDAYDVQQHDAVQcm92bzEMMAoGA1UECgwDQllV
MRUwEwYDVQQDDAx0ZXN0c2hvcC5jb20wggEiMA0GCSqGSIb3DQEBAQUAA4IBDwAw
ggEKAoIBAQDSwHkBx1Go2yOIyyYUcRRwpkJHySnHfuL42A4iMZUDFuosCZecVSly
vd7j8EuIsiuF2lYT/MC7jOzpYoN2PaWxSPWypKDfkC00+saJzMO5ySvx9gF2ZqDQ
1gnGGrNuA4r1mLWkwi6xdleHjfc/3fOoMyLZEqpT4Q/DdcY1quetAo4o43bwY5nE
EmdpL3M2ACdQkyLjsukSM1ivcDXChnCw6Uda5WWnj2WETrQsIeqiBSm62XalVBSs
Lo+QowQMVGgFxbuAxv6F2PiiZeSdO5Lw3MB4JFoMOcw0AhYjimOX86v3tsaIgTVG
08Ewfril8Fy5FYE6utG/PNr8fWOhbCb5AgMBAAGjgcAwgb0wHQYDVR0OBBYEFFTo
Fs1HeVEWOUXzpZvGZEWmyDT4MB8GA1UdIwQYMBaAFGaNc5iOhthrKS5twCWmnu86
M2AwMAkGA1UdEwQCMAAwCwYDVR0PBAQDAgWgMCgGCWCGSAGG+EIBDQQbFhlTU0Eg
R2VuZXJhdGVkIENlcnRpZmljYXRlMDkGA1UdEQQyMDCCDHRlc3RzaG9wLmNvbYIQ
d3d3LnRlc3RzaG9wLmNvbYIOKi50ZXN0c2hvcC5jb20wDQYJKoZIhvcNAQELBQAD
ggIBABYHuighbszo8v+zBQ71DbDrYBqazdfbWiJI+fKjqaP2UVL83wOkvKlT3Dwo
fQVM3ICpMa1PfZxaHacNfjaqIXoUlLhvgmxFVVjuKdWLeWGHd7u+qe5ugATsFcvB
f642a+GxabxJIUYMUGpEGpFnhstil7jkQFlwrgL9aEPkm9qymuDh8qoUO6E7iHqn
XoNukS+QOgs7n191XpDyLI331T8M0gbZLXE0s+uaKjQ1vz2Tri9brajfTA8RhVoW
SieG5TiqlpzZ6dGI3HEzVayHTULxLpJhO/wSR94NMl6hSD0TNDLwwznjFIz4pJyW
Iu0vE528naNhpU1ch/ap2hTgSq5DyAytwkB1f5WBZlk/+/BfbbSd9xFJ/9wk183+
E3TjFgLetOQ5hvthzBcoqBZSrIHRiptxf25oA3cUDdKqdq2qlNULQN4Ti3xlMvo+
sQfrVFsL5OVvNvJt8sz0VpDN2t/MWiNqJ1DwYP3GVi3LVVXxJURVSCgBb7+L7Roh
406PQLU+shT3rUveUio+3pa76MLAIbTRs7+GJlqvfOo9//O81WGjEv2RHDIrug0T
YDL17V4XesexQLHXP8tivEnlV+gKD7OONqmMBgDOrqXiHAjpCaxZyqDUwSVy2QtT
QuxzFZ+rGc7tmgOWanBO2tFz4jc6LJ0Q//JY3LfxdRPlWNzQ
-----END CERTIFICATE-----
