Certificate:
    Data:
        Version: 3 (0x2)
        Serial Number: 8 (0x8)
    Signature Algorithm: sha256WithRSAEncryption
        Issuer: C=US, ST=Utah, L=Provo, O=TrustBase Associates, OU=Public Relations, CN=owntrust.org/emailAddress=contact@owntrust.org
        Validity
            Not Before: Jun 19 18:23:33 2018 GMT
            Not After : Jun 29 18:23:33 2019 GMT
        Subject: C=US, ST=Utah, L=Provo, O=US Citizens, CN=openrebellion.com
        Subject Public Key Info:
            Public Key Algorithm: rsaEncryption
                Public-Key: (2048 bit)
                Modulus:
                    00:c4:bb:54:cf:80:7e:e2:3a:0d:a4:4d:61:00:01:
                    ae:ae:67:d9:42:a6:7c:0e:ff:34:9b:b5:10:1e:ce:
                    0a:07:0b:e4:b0:cd:87:0d:82:2e:40:62:a3:57:46:
                    25:8d:4e:fc:23:0c:56:3c:e4:bd:9a:12:88:39:8d:
                    df:86:61:df:55:51:fc:9a:cc:04:eb:2b:fd:ed:63:
                    e7:2a:47:ff:f8:32:37:0c:35:40:56:62:dd:5f:df:
                    5e:07:a4:b1:8c:ed:d4:3e:28:3f:cb:3e:ba:22:6b:
                    e8:aa:00:ad:5d:4c:84:89:eb:11:04:6a:a8:2c:0a:
                    ab:b3:ca:c4:ba:36:a7:9c:bc:e3:70:f0:0b:c2:e4:
                    a1:5d:45:66:bc:1e:cd:5e:1b:45:94:e0:3d:0f:48:
                    41:61:d7:89:02:13:f0:68:8e:b6:20:26:13:ca:69:
                    b7:98:9c:02:9f:1d:74:88:3e:ab:53:aa:f8:fb:b0:
                    24:82:0a:54:b1:1c:2c:14:05:71:cb:04:58:d0:58:
                    33:f7:73:45:36:16:ea:4d:96:f4:2b:0b:98:44:a7:
                    c4:27:fb:e5:48:10:f7:21:99:6d:e3:b6:36:aa:74:
                    47:f3:23:59:1e:db:c2:ce:6c:96:dd:f8:f9:28:ac:
                    19:62:ed:ad:bf:0c:4e:24:16:4f:4a:80:41:4b:4f:
                    6e:a1
                Exponent: 65537 (0x10001)
        X509v3 extensions:
            X509v3 Subject Key Identifier: 
                7D:1D:FC:A3:F4:5C:E8:15:C7:0E:35:F4:1B:11:F7:A5:CC:C4:CD:4C
            X509v3 Authority Key Identifier: 
                keyid:66:8D:73:98:8E:86:D8:6B:29:2E:6D:C0:25:A6:9E:EF:3A:33:60:30

            X509v3 Basic Constraints: 
                CA:FALSE
            X509v3 Key Usage: 
                Digital Signature, Key Encipherment
            Netscape Comment: 
                SSA Generated Certificate
            X509v3 Subject Alternative Name: 
                DNS:openrebellion.com
    Signature Algorithm: sha256WithRSAEncryption
         48:f3:3d:7d:eb:c4:02:08:fc:c1:7e:b2:0f:bb:50:48:4b:df:
         84:e4:db:a4:62:0c:26:46:d4:3a:30:34:44:09:fc:1e:9e:0e:
         d9:af:72:ba:f9:15:ba:01:77:78:05:26:92:e6:06:29:fe:5e:
         40:68:ca:92:b7:43:70:ce:c3:d5:ae:4d:d3:b9:0b:8c:0f:b8:
         b5:ca:ad:bf:72:91:ae:66:f3:d6:4a:a5:d5:20:55:d2:0f:01:
         88:3d:27:ad:70:05:ce:5c:52:6e:ff:dd:24:0d:9a:60:96:13:
         a7:2c:ff:8f:2b:8e:41:a6:c1:e4:50:a4:e0:e2:90:25:7f:56:
         18:68:82:05:e7:70:c4:c0:0e:e9:e3:58:7f:e2:25:ee:12:1b:
         55:be:ed:1e:a4:70:2c:6f:31:13:2e:91:58:f2:76:f9:6f:8e:
         12:be:ad:a4:e3:cc:74:c3:4a:96:8f:fa:a9:2b:f1:be:9c:9f:
         4d:e0:b2:ee:b4:87:ec:9a:49:85:52:65:a3:a8:3a:74:ce:30:
         db:5a:e5:04:de:9c:a7:7d:8f:f3:17:ae:58:68:97:46:a1:51:
         7c:de:bc:a5:17:45:b3:f1:cb:32:12:fd:4a:80:03:0f:15:fc:
         4c:bc:6b:14:bc:6e:d5:96:ac:1e:0b:b2:bf:e2:5e:ad:9a:f0:
         03:d8:e1:bb:19:44:bf:0f:86:57:e3:df:33:22:ec:dc:9b:b3:
         f7:84:d9:3d:79:37:09:7a:0b:98:ac:1e:94:45:7a:ee:57:ba:
         c3:f6:86:53:9b:05:f6:17:61:03:dd:ec:7f:85:9d:4e:63:45:
         d2:e7:0c:9c:cc:61:8a:3f:11:1c:32:24:3c:b3:8f:43:c4:f3:
         fa:27:69:8f:60:d4:7a:60:5b:a0:0a:c6:60:72:ff:63:df:e0:
         d9:da:62:8e:5e:78:3a:db:84:ee:8c:3f:42:2a:c9:94:9a:de:
         dd:c6:35:41:17:0f:5b:48:2a:a0:48:05:33:8f:d9:d8:2e:c9:
         fd:75:db:c2:17:cf:53:4e:5d:ee:eb:de:09:10:39:49:a1:a5:
         ef:75:4a:7c:91:13:5f:17:d8:a4:d8:a2:e0:2c:1d:53:33:9c:
         f9:1c:63:da:49:cd:e7:57:29:c8:73:81:a0:5c:44:e0:71:41:
         7e:8f:c8:3b:a3:32:61:3f:bd:ca:25:ce:23:71:7d:d8:4b:c2:
         00:5f:5a:d6:6e:95:b5:9d:93:8c:ad:45:2f:ec:b8:0a:24:a9:
         8f:14:26:92:1a:24:cc:c2:1c:0f:46:98:5a:dc:c3:62:43:60:
         b2:25:ef:f8:c3:20:b5:b9:df:bd:3d:be:92:14:82:98:60:25:
         af:4c:9d:ec:e6:03:64:66
-----BEGIN CERTIFICATE-----
MIIFIDCCAwigAwIBAgIBCDANBgkqhkiG9w0BAQsFADCBojELMAkGA1UEBhMCVVMx
DTALBgNVBAgMBFV0YWgxDjAMBgNVBAcMBVByb3ZvMR0wGwYDVQQKDBRUcnVzdEJh
c2UgQXNzb2NpYXRlczEZMBcGA1UECwwQUHVibGljIFJlbGF0aW9uczEVMBMGA1UE
AwwMb3dudHJ1c3Qub3JnMSMwIQYJKoZIhvcNAQkBFhRjb250YWN0QG93bnRydXN0
Lm9yZzAeFw0xODA2MTkxODIzMzNaFw0xOTA2MjkxODIzMzNaMF4xCzAJBgNVBAYT
AlVTMQ0wCwYDVQQIDARVdGFoMQ4wDAYDVQQHDAVQcm92bzEUMBIGA1UECgwLVVMg
Q2l0aXplbnMxGjAYBgNVBAMMEW9wZW5yZWJlbGxpb24uY29tMIIBIjANBgkqhkiG
9w0BAQEFAAOCAQ8AMIIBCgKCAQEAxLtUz4B+4joNpE1hAAGurmfZQqZ8Dv80m7UQ
Hs4KBwvksM2HDYIuQGKjV0YljU78IwxWPOS9mhKIOY3fhmHfVVH8mswE6yv97WPn
Kkf/+DI3DDVAVmLdX99eB6SxjO3UPig/yz66ImvoqgCtXUyEiesRBGqoLAqrs8rE
ujannLzjcPALwuShXUVmvB7NXhtFlOA9D0hBYdeJAhPwaI62ICYTymm3mJwCnx10
iD6rU6r4+7AkggpUsRwsFAVxywRY0Fgz93NFNhbqTZb0KwuYRKfEJ/vlSBD3IZlt
47Y2qnRH8yNZHtvCzmyW3fj5KKwZYu2tvwxOJBZPSoBBS09uoQIDAQABo4GjMIGg
MB0GA1UdDgQWBBR9Hfyj9FzoFccONfQbEfelzMTNTDAfBgNVHSMEGDAWgBRmjXOY
jobYaykubcAlpp7vOjNgMDAJBgNVHRMEAjAAMAsGA1UdDwQEAwIFoDAoBglghkgB
hvhCAQ0EGxYZU1NBIEdlbmVyYXRlZCBDZXJ0aWZpY2F0ZTAcBgNVHREEFTATghFv
cGVucmViZWxsaW9uLmNvbTANBgkqhkiG9w0BAQsFAAOCAgEASPM9fevEAgj8wX6y
D7tQSEvfhOTbpGIMJkbUOjA0RAn8Hp4O2a9yuvkVugF3eAUmkuYGKf5eQGjKkrdD
cM7D1a5N07kLjA+4tcqtv3KRrmbz1kql1SBV0g8BiD0nrXAFzlxSbv/dJA2aYJYT
pyz/jyuOQabB5FCk4OKQJX9WGGiCBedwxMAO6eNYf+Il7hIbVb7tHqRwLG8xEy6R
WPJ2+W+OEr6tpOPMdMNKlo/6qSvxvpyfTeCy7rSH7JpJhVJlo6g6dM4w21rlBN6c
p32P8xeuWGiXRqFRfN68pRdFs/HLMhL9SoADDxX8TLxrFLxu1ZasHguyv+JerZrw
A9jhuxlEvw+GV+PfMyLs3Juz94TZPXk3CXoLmKwelEV67le6w/aGU5sF9hdhA93s
f4WdTmNF0ucMnMxhij8RHDIkPLOPQ8Tz+idpj2DUemBboArGYHL/Y9/g2dpijl54
OtuE7ow/QirJlJre3cY1QRcPW0gqoEgFM4/Z2C7J/XXbwhfPU05d7uveCRA5SaGl
73VKfJETXxfYpNii4CwdUzOc+Rxj2knN51cpyHOBoFxE4HFBfo/IO6MyYT+9yiXO
I3F92EvCAF9a1m6VtZ2TjK1FL+y4CiSpjxQmkhokzMIcD0aYWtzDYkNgsiXv+MMg
tbnfvT2+khSCmGAlr0yd7OYDZGY=
-----END CERTIFICATE-----
