Certificate:
    Data:
        Version: 3 (0x2)
        Serial Number: 7 (0x7)
    Signature Algorithm: sha256WithRSAEncryption
        Issuer: C=US, ST=Utah, L=Provo, O=TrustBase Associates, OU=Public Relations, CN=owntrust.org/emailAddress=contact@owntrust.org
        Validity
            Not Before: Jun 19 17:43:03 2018 GMT
            Not After : Jun 29 17:43:03 2019 GMT
        Subject: C=US, ST=Utah, L=Provo, O=US Citizens, CN=Mark ONeill
        Subject Public Key Info:
            Public Key Algorithm: rsaEncryption
                Public-Key: (2048 bit)
                Modulus:
                    00:ad:c9:09:99:31:50:e2:ff:93:62:a9:3f:5e:c6:
                    3e:fe:24:43:6f:a1:87:a2:81:56:15:79:5b:23:f7:
                    a3:1e:54:87:11:2d:76:92:d1:d0:de:9f:26:dd:c9:
                    8a:7b:9f:01:2e:b8:14:9b:8d:2d:07:5b:95:55:ef:
                    e6:29:d9:57:86:fe:a4:7d:11:77:0b:3d:f6:d4:d0:
                    92:ed:2f:d6:2b:fe:82:84:90:46:2c:64:3f:dc:0c:
                    d2:04:a0:85:e6:15:53:0a:1e:8e:f1:6e:b2:88:56:
                    ad:a5:eb:2c:2a:7a:f2:1a:c0:a7:46:95:81:a6:90:
                    e8:31:ed:28:9d:e0:ba:86:f2:be:0e:98:bd:51:25:
                    25:14:32:19:17:94:d8:3b:2f:71:1a:74:16:f9:b1:
                    80:e6:4c:b4:d0:3a:75:68:c8:d5:0b:8a:de:19:9d:
                    8a:56:cd:b8:1a:7a:d1:f1:b3:4c:76:5d:0c:5f:a9:
                    98:3f:dd:da:34:93:5c:44:fd:cc:06:2c:4a:63:3e:
                    50:36:4d:41:96:72:b6:fb:5a:04:e0:45:e5:3e:a5:
                    c3:40:9a:ab:98:6f:a4:76:fc:20:97:25:b9:e4:6b:
                    62:3b:6a:03:13:75:6b:a2:6c:c4:ea:51:af:26:15:
                    dd:cd:ec:21:72:e7:0b:75:03:1d:58:de:b3:e5:9c:
                    5b:6f
                Exponent: 65537 (0x10001)
        X509v3 extensions:
            X509v3 Subject Key Identifier: 
                B2:C2:D1:3F:C9:EB:5F:A4:35:93:02:EA:EE:09:1C:F1:50:A3:AE:95
            X509v3 Authority Key Identifier: 
                keyid:66:8D:73:98:8E:86:D8:6B:29:2E:6D:C0:25:A6:9E:EF:3A:33:60:30

            X509v3 Basic Constraints: 
                CA:FALSE
            X509v3 Key Usage: 
                Digital Signature, Key Encipherment
            Netscape Comment: 
                SSA Generated Certificate
            X509v3 Subject Alternative Name: 
                DNS:openrebellion.com
    Signature Algorithm: sha256WithRSAEncryption
         2a:0b:3f:8c:29:82:c2:b1:d6:51:b6:b0:9e:65:22:bb:51:c0:
         b5:6a:98:6d:f9:54:1a:d3:1e:1b:1f:42:22:86:0b:1b:ef:30:
         1e:35:2f:47:24:37:1c:77:57:36:60:7e:47:f8:84:ba:1c:8e:
         0b:b1:ef:82:61:5e:24:2f:df:b1:01:a0:b3:98:59:07:b0:03:
         53:1b:46:5a:b8:e6:e8:6f:44:5e:2c:dc:27:f8:b0:ba:8a:61:
         aa:a3:ca:bd:4d:4e:53:e9:dc:36:b2:2f:7d:7d:3d:b1:d2:23:
         72:55:a6:9f:f3:21:18:2a:11:13:dc:e1:9f:35:17:45:4c:d4:
         7c:73:d9:90:c3:9d:e3:d2:68:bf:75:a7:da:95:20:7d:d1:da:
         5e:43:2e:f8:c3:dc:18:c5:b5:d6:83:de:9f:af:3d:26:c0:22:
         9c:4c:a8:df:9c:11:00:46:f5:04:fa:bc:30:01:fc:0b:29:62:
         2d:07:82:44:35:9c:4c:6c:67:b7:d2:c9:d4:d7:46:fe:2f:4c:
         be:b3:43:40:7a:df:68:45:72:b0:3c:39:9f:f7:c9:ee:a8:0a:
         67:a8:3b:d4:cd:07:d3:9d:78:e8:10:36:b8:3a:fa:37:f2:14:
         1b:2b:1c:3c:8c:ab:59:06:12:17:ba:f0:5e:e6:de:77:4e:88:
         2b:32:32:49:91:6f:d3:17:1c:3d:36:e0:99:cb:b4:63:2c:01:
         a1:98:49:09:c8:64:74:9a:6d:9c:11:51:7f:c1:ad:fc:50:04:
         ba:78:35:bc:e6:ff:02:08:81:dd:0b:88:4e:4c:84:2a:cf:e8:
         13:8a:49:70:dd:fc:88:ce:35:90:43:f0:e2:5a:75:a9:d8:cc:
         68:0b:ec:da:65:ce:cf:4b:a8:a4:d9:20:0c:5e:3d:d5:8c:08:
         c1:64:b4:a4:86:42:d0:73:45:c0:ad:2a:de:8d:03:7f:b1:17:
         c8:4d:d8:3a:5f:d2:71:b1:15:20:d8:7a:37:1f:70:bb:10:ed:
         6a:06:af:36:23:3e:1f:15:0d:bb:3b:2b:31:77:9f:03:34:12:
         d9:03:8b:5c:27:6e:b5:17:9f:61:53:43:3d:6b:05:11:fb:b6:
         f6:93:3c:55:dd:20:bb:ce:9d:49:63:bd:07:55:2d:48:4a:79:
         25:ff:40:0e:ac:cb:0b:1a:aa:c7:f8:1b:7b:e8:49:64:4b:d2:
         80:84:51:34:fb:f9:8c:eb:d4:17:fa:4d:e3:38:02:03:12:fc:
         a7:2a:f9:c8:02:4e:56:18:5a:0b:31:0d:ae:c1:a2:6f:5e:47:
         54:65:46:1a:6d:ca:23:b3:d1:a5:cb:d4:b9:af:43:77:e9:eb:
         82:10:8d:42:a1:e4:e2:c8
-----BEGIN CERTIFICATE-----
MIIFGjCCAwKgAwIBAgIBBzANBgkqhkiG9w0BAQsFADCBojELMAkGA1UEBhMCVVMx
DTALBgNVBAgMBFV0YWgxDjAMBgNVBAcMBVByb3ZvMR0wGwYDVQQKDBRUcnVzdEJh
c2UgQXNzb2NpYXRlczEZMBcGA1UECwwQUHVibGljIFJlbGF0aW9uczEVMBMGA1UE
AwwMb3dudHJ1c3Qub3JnMSMwIQYJKoZIhvcNAQkBFhRjb250YWN0QG93bnRydXN0
Lm9yZzAeFw0xODA2MTkxNzQzMDNaFw0xOTA2MjkxNzQzMDNaMFgxCzAJBgNVBAYT
AlVTMQ0wCwYDVQQIDARVdGFoMQ4wDAYDVQQHDAVQcm92bzEUMBIGA1UECgwLVVMg
Q2l0aXplbnMxFDASBgNVBAMMC01hcmsgT05laWxsMIIBIjANBgkqhkiG9w0BAQEF
AAOCAQ8AMIIBCgKCAQEArckJmTFQ4v+TYqk/XsY+/iRDb6GHooFWFXlbI/ejHlSH
ES12ktHQ3p8m3cmKe58BLrgUm40tB1uVVe/mKdlXhv6kfRF3Cz321NCS7S/WK/6C
hJBGLGQ/3AzSBKCF5hVTCh6O8W6yiFatpessKnryGsCnRpWBppDoMe0oneC6hvK+
Dpi9USUlFDIZF5TYOy9xGnQW+bGA5ky00Dp1aMjVC4reGZ2KVs24GnrR8bNMdl0M
X6mYP93aNJNcRP3MBixKYz5QNk1BlnK2+1oE4EXlPqXDQJqrmG+kdvwglyW55Gti
O2oDE3VromzE6lGvJhXdzewhcucLdQMdWN6z5ZxbbwIDAQABo4GjMIGgMB0GA1Ud
DgQWBBSywtE/yetfpDWTAuruCRzxUKOulTAfBgNVHSMEGDAWgBRmjXOYjobYayku
bcAlpp7vOjNgMDAJBgNVHRMEAjAAMAsGA1UdDwQEAwIFoDAoBglghkgBhvhCAQ0E
GxYZU1NBIEdlbmVyYXRlZCBDZXJ0aWZpY2F0ZTAcBgNVHREEFTATghFvcGVucmVi
ZWxsaW9uLmNvbTANBgkqhkiG9w0BAQsFAAOCAgEAKgs/jCmCwrHWUbawnmUiu1HA
tWqYbflUGtMeGx9CIoYLG+8wHjUvRyQ3HHdXNmB+R/iEuhyOC7HvgmFeJC/fsQGg
s5hZB7ADUxtGWrjm6G9EXizcJ/iwuophqqPKvU1OU+ncNrIvfX09sdIjclWmn/Mh
GCoRE9zhnzUXRUzUfHPZkMOd49Jov3Wn2pUgfdHaXkMu+MPcGMW11oPen689JsAi
nEyo35wRAEb1BPq8MAH8CyliLQeCRDWcTGxnt9LJ1NdG/i9MvrNDQHrfaEVysDw5
n/fJ7qgKZ6g71M0H05146BA2uDr6N/IUGyscPIyrWQYSF7rwXubed06IKzIySZFv
0xccPTbgmcu0YywBoZhJCchkdJptnBFRf8Gt/FAEung1vOb/AgiB3QuITkyEKs/o
E4pJcN38iM41kEPw4lp1qdjMaAvs2mXOz0uopNkgDF491YwIwWS0pIZC0HNFwK0q
3o0Df7EXyE3YOl/ScbEVINh6Nx9wuxDtagavNiM+HxUNuzsrMXefAzQS2QOLXCdu
tRefYVNDPWsFEfu29pM8Vd0gu86dSWO9B1UtSEp5Jf9ADqzLCxqqx/gbe+hJZEvS
gIRRNPv5jOvUF/pN4zgCAxL8pyr5yAJOVhhaCzENrsGib15HVGVGGm3KI7PRpcvU
ua9Dd+nrghCNQqHk4sg=
-----END CERTIFICATE-----
