Certificate:
    Data:
        Version: 3 (0x2)
        Serial Number: 2 (0x2)
    Signature Algorithm: sha256WithRSAEncryption
        Issuer: C=US, ST=Utah, L=Provo, O=TrustBase Associates, OU=Public Relations, CN=owntrust.org/emailAddress=contact@owntrust.org
        Validity
            Not Before: Mar 19 20:45:01 2018 GMT
            Not After : Mar 19 20:45:01 2019 GMT
        Subject: C=US, ST=Utah, L=Provo, O=US Citizens, CN=Mark ONeill
        Subject Public Key Info:
            Public Key Algorithm: rsaEncryption
                Public-Key: (2048 bit)
                Modulus:
                    00:be:f1:15:0d:5f:e2:41:a7:a6:03:ae:d0:3a:8a:
                    b4:01:45:00:ef:a0:15:79:51:bd:ff:62:bd:1a:33:
                    e3:c5:32:e3:e5:8c:f3:31:ae:1a:97:91:5f:74:c4:
                    39:9d:35:d7:1d:23:c0:02:a9:11:60:a6:40:43:6e:
                    b2:f8:20:6c:a9:84:fa:43:ad:e4:da:6b:09:67:8e:
                    73:b5:12:5d:cd:8e:d1:5a:36:b3:4e:18:0c:a9:df:
                    17:9d:ab:c6:2e:76:91:97:a9:c3:56:0a:26:87:46:
                    01:9c:48:48:91:6e:6f:6c:67:9c:2f:4d:49:a0:a5:
                    b0:16:11:a2:d4:dc:0e:ba:bb:80:24:01:cf:89:13:
                    59:35:84:aa:e7:89:65:68:b2:06:ee:8d:08:7b:39:
                    15:c0:58:f1:47:2b:50:35:cc:95:e7:be:69:42:a1:
                    9f:a8:7b:e7:e1:97:aa:3e:68:80:95:60:9f:5e:2a:
                    a1:5f:b1:41:4d:0a:93:30:cc:79:39:02:53:61:45:
                    ca:a4:a6:b3:2f:5c:44:7e:80:3c:2a:f6:49:ca:fb:
                    7a:87:78:04:fb:92:0f:f2:45:af:21:f8:f9:3c:e8:
                    b6:36:e8:58:67:a1:8c:6f:84:78:61:dc:0b:2e:a6:
                    58:e8:49:54:e6:1e:e4:42:f9:75:8c:d2:64:4f:eb:
                    ca:f9
                Exponent: 65537 (0x10001)
        X509v3 extensions:
            X509v3 Subject Key Identifier: 
                0D:29:90:63:D9:C0:C1:B2:26:09:0F:B7:CB:6F:64:D8:90:C0:B0:71
            X509v3 Authority Key Identifier: 
                keyid:A1:14:CD:AA:48:0B:10:43:6D:DF:31:8F:83:1B:6E:87:C5:FC:F8:F5

            X509v3 Basic Constraints: 
                CA:FALSE
            X509v3 Key Usage: 
                Digital Signature, Key Encipherment
            Netscape Comment: 
                SSA Generated Certificate
    Signature Algorithm: sha256WithRSAEncryption
         81:92:e7:61:5c:1c:ce:9e:d1:a6:95:bd:f5:9e:91:1c:47:39:
         1f:e1:61:b5:5e:86:fe:e3:bd:70:27:e3:e3:43:9a:79:6a:81:
         32:d2:f4:bf:dc:83:c5:15:3e:be:bf:78:4d:0c:24:ab:8f:b2:
         98:72:71:0c:67:f4:63:cb:07:af:57:6b:33:f5:69:66:3c:a9:
         04:77:9b:5b:40:cb:6c:d3:e4:c0:79:03:b3:99:22:4f:cd:18:
         60:7f:d9:f6:5e:de:2c:4f:ca:d2:4c:ab:d1:27:ce:e8:32:5f:
         ec:ec:ab:01:c3:c3:2b:69:38:54:90:77:95:5d:02:64:ba:90:
         12:9d:5e:b0:28:98:35:2e:a0:1b:4b:ec:58:d0:a9:ca:4a:37:
         09:da:dd:c5:c9:4a:15:c2:30:25:fd:d1:3d:a8:fe:17:1b:21:
         4b:1b:92:a7:30:34:44:96:d8:4d:d9:50:ce:1e:8a:3e:46:18:
         bf:34:7c:57:7c:0a:24:1e:e3:87:89:92:b4:8c:23:47:2b:17:
         6c:05:61:aa:39:c2:ea:39:2d:72:af:5e:cc:01:b5:7f:56:98:
         01:b7:ee:cc:b7:e7:b1:54:bd:f8:b2:28:8d:01:aa:48:1c:aa:
         35:d6:3e:3b:ea:83:72:59:df:76:88:07:7a:1a:98:77:64:56:
         43:14:28:24:79:b1:9e:9e:5c:93:33:b8:83:1f:47:ff:96:18:
         2c:87:43:01:8a:b6:a5:a1:a0:5a:5a:b1:5f:a7:3c:12:b4:8c:
         09:54:ef:a3:d8:79:1d:bd:06:74:2b:22:d0:c3:31:b5:a7:8e:
         3c:34:dc:7f:1e:d3:31:f7:cc:85:38:9e:32:b9:d5:6b:3e:ef:
         f7:f9:a2:47:e4:23:c1:9b:4f:12:a8:5c:cc:d3:b2:c1:0c:70:
         ed:17:c0:76:b3:f7:63:99:4a:b3:f5:0a:b1:35:f3:f1:ec:c0:
         d9:ac:6b:7f:97:01:1a:e8:01:ee:fb:4e:0c:b2:99:9c:0f:1a:
         50:5a:c4:61:39:23:27:21:b4:90:8f:28:e2:4f:8a:01:ad:a1:
         92:30:53:9e:ab:80:3c:75:7b:6a:5e:5f:c8:17:3c:2d:b9:0c:
         09:a0:f5:c1:14:0e:d9:c6:8b:1b:1c:d8:3d:a0:24:77:92:9a:
         e6:b1:6f:69:8c:a0:5d:60:47:34:f4:53:a3:d1:de:4d:17:72:
         aa:9f:2e:d1:b6:b3:52:74:7f:e3:7d:23:e4:d4:01:22:cf:51:
         18:14:f7:63:73:81:9b:c7:5f:f6:1d:11:71:67:f1:04:a3:7f:
         d1:a1:c7:4d:18:6a:e0:a7:fe:23:87:c1:31:4d:a6:b8:99:45:
         f8:c8:d4:9a:4e:76:5d:bf
-----BEGIN CERTIFICATE-----
MIIE/DCCAuSgAwIBAgIBAjANBgkqhkiG9w0BAQsFADCBojELMAkGA1UEBhMCVVMx
DTALBgNVBAgMBFV0YWgxDjAMBgNVBAcMBVByb3ZvMR0wGwYDVQQKDBRUcnVzdEJh
c2UgQXNzb2NpYXRlczEZMBcGA1UECwwQUHVibGljIFJlbGF0aW9uczEVMBMGA1UE
AwwMb3dudHJ1c3Qub3JnMSMwIQYJKoZIhvcNAQkBFhRjb250YWN0QG93bnRydXN0
Lm9yZzAeFw0xODAzMTkyMDQ1MDFaFw0xOTAzMTkyMDQ1MDFaMFgxCzAJBgNVBAYT
AlVTMQ0wCwYDVQQIDARVdGFoMQ4wDAYDVQQHDAVQcm92bzEUMBIGA1UECgwLVVMg
Q2l0aXplbnMxFDASBgNVBAMMC01hcmsgT05laWxsMIIBIjANBgkqhkiG9w0BAQEF
AAOCAQ8AMIIBCgKCAQEAvvEVDV/iQaemA67QOoq0AUUA76AVeVG9/2K9GjPjxTLj
5YzzMa4al5FfdMQ5nTXXHSPAAqkRYKZAQ26y+CBsqYT6Q63k2msJZ45ztRJdzY7R
WjazThgMqd8XnavGLnaRl6nDVgomh0YBnEhIkW5vbGecL01JoKWwFhGi1NwOuruA
JAHPiRNZNYSq54llaLIG7o0IezkVwFjxRytQNcyV575pQqGfqHvn4ZeqPmiAlWCf
XiqhX7FBTQqTMMx5OQJTYUXKpKazL1xEfoA8KvZJyvt6h3gE+5IP8kWvIfj5POi2
NuhYZ6GMb4R4YdwLLqZY6ElU5h7kQvl1jNJkT+vK+QIDAQABo4GFMIGCMB0GA1Ud
DgQWBBQNKZBj2cDBsiYJD7fLb2TYkMCwcTAfBgNVHSMEGDAWgBShFM2qSAsQQ23f
MY+DG26Hxfz49TAJBgNVHRMEAjAAMAsGA1UdDwQEAwIFoDAoBglghkgBhvhCAQ0E
GxYZU1NBIEdlbmVyYXRlZCBDZXJ0aWZpY2F0ZTANBgkqhkiG9w0BAQsFAAOCAgEA
gZLnYVwczp7RppW99Z6RHEc5H+FhtV6G/uO9cCfj40OaeWqBMtL0v9yDxRU+vr94
TQwkq4+ymHJxDGf0Y8sHr1drM/VpZjypBHebW0DLbNPkwHkDs5kiT80YYH/Z9l7e
LE/K0kyr0SfO6DJf7OyrAcPDK2k4VJB3lV0CZLqQEp1esCiYNS6gG0vsWNCpyko3
CdrdxclKFcIwJf3RPaj+FxshSxuSpzA0RJbYTdlQzh6KPkYYvzR8V3wKJB7jh4mS
tIwjRysXbAVhqjnC6jktcq9ezAG1f1aYAbfuzLfnsVS9+LIojQGqSByqNdY+O+qD
clnfdogHehqYd2RWQxQoJHmxnp5ckzO4gx9H/5YYLIdDAYq2paGgWlqxX6c8ErSM
CVTvo9h5Hb0GdCsi0MMxtaeOPDTcfx7TMffMhTieMrnVaz7v9/miR+QjwZtPEqhc
zNOywQxw7RfAdrP3Y5lKs/UKsTXz8ezA2axrf5cBGugB7vtODLKZnA8aUFrEYTkj
JyG0kI8o4k+KAa2hkjBTnquAPHV7al5fyBc8LbkMCaD1wRQO2caLGxzYPaAkd5Ka
5rFvaYygXWBHNPRTo9HeTRdyqp8u0bazUnR/430j5NQBIs9RGBT3Y3OBm8df9h0R
cWfxBKN/0aHHTRhq4Kf+I4fBMU2muJlF+MjUmk52Xb8=
-----END CERTIFICATE-----
