Certificate:
    Data:
        Version: 3 (0x2)
        Serial Number: 1 (0x1)
    Signature Algorithm: sha256WithRSAEncryption
        Issuer: C=US, ST=Utah, L=Provo, O=Phoenix Team, OU=Public Relations, CN=phoenixteam.org/emailAddress=contact@phoenixteam.org
        Validity
            Not Before: Mar 21 02:11:56 2017 GMT
            Not After : Mar 21 02:11:56 2018 GMT
        Subject: C=US, ST=Utah, L=Provo, O=US Citizens, CN=Mark ONeill
        Subject Public Key Info:
            Public Key Algorithm: rsaEncryption
                Public-Key: (2048 bit)
                Modulus:
                    00:af:8c:77:63:5d:e5:b0:27:c7:d4:69:c9:90:aa:
                    dd:ae:a6:f2:b7:90:48:4e:6f:55:01:25:7c:e2:4c:
                    d6:36:19:38:7b:d1:f8:f3:d2:38:48:c5:1e:15:8e:
                    3b:67:31:e1:35:65:b0:dc:3b:6f:27:55:62:30:a4:
                    9c:2c:98:e5:82:d0:9a:d2:e9:4c:98:ae:a9:cb:91:
                    25:ee:14:11:c8:19:65:89:2a:70:d1:d8:12:e4:9a:
                    8a:0f:d8:04:f8:26:6f:f3:33:10:2f:35:3d:72:51:
                    6c:ea:cf:28:a4:cb:7b:73:f2:47:f1:a7:d8:66:e0:
                    a8:a1:73:31:72:e6:d0:f1:3a:00:9a:a8:81:5a:4d:
                    a0:15:b1:2d:5e:ba:e7:98:4e:e6:33:78:cf:a8:a6:
                    81:a5:70:17:ed:fe:e5:f5:96:8a:3c:57:81:fc:58:
                    df:5c:7a:a9:70:6d:a2:9e:f9:8d:17:c4:00:26:f7:
                    14:0f:53:cb:ff:a8:a0:89:2c:fb:bf:4d:06:ee:db:
                    2d:72:03:9c:9d:62:4a:a9:46:df:15:2b:6c:1e:5b:
                    8b:1a:bb:31:ee:0f:63:45:6f:3d:5a:6e:5f:94:a6:
                    ac:77:e2:33:1a:00:a0:be:40:b3:73:29:a6:91:7a:
                    69:da:00:f0:bc:b0:61:f1:3e:63:38:e1:08:b1:d5:
                    5c:5b
                Exponent: 65537 (0x10001)
        X509v3 extensions:
            X509v3 Subject Key Identifier: 
                61:F9:C0:76:C0:38:93:0F:5B:4E:E6:0F:CF:04:F9:BF:D9:AB:BF:2C
            X509v3 Authority Key Identifier: 
                keyid:C4:BA:2E:A5:A9:47:67:29:C2:8C:DF:02:1A:45:DF:F6:CA:A8:6E:9D

            X509v3 Basic Constraints: 
                CA:FALSE
            X509v3 Key Usage: 
                Digital Signature, Key Encipherment
            Netscape Comment: 
                OpenSSL Generated Certificate
    Signature Algorithm: sha256WithRSAEncryption
         0c:be:27:69:a3:23:de:33:bb:b4:ba:d4:bb:11:a6:aa:3b:0a:
         49:36:20:8a:83:92:2f:da:8f:05:c8:d1:03:f8:b0:fa:33:54:
         d2:71:79:8e:27:02:35:10:19:e6:c5:a3:46:cc:fe:7a:1a:cb:
         d7:2a:49:5f:21:5f:4a:a0:5e:22:e6:24:4c:7b:82:6a:7a:81:
         c4:3c:f6:ed:3d:80:b0:0c:9b:0b:93:f4:13:9f:74:e2:fe:dd:
         29:2a:f3:fe:14:08:78:ac:ce:b7:24:0e:35:53:4b:a3:6a:b0:
         ab:dc:28:e5:89:53:5b:97:71:96:54:bd:12:83:fe:9a:76:cd:
         6b:08:40:49:8d:99:31:97:b9:19:64:22:25:25:56:f2:28:f1:
         59:5f:7c:0c:b5:10:91:3a:ef:5d:c6:76:b6:78:e5:87:2a:ed:
         af:91:15:92:b5:0d:73:10:f9:0a:d0:15:58:f2:4d:e9:8d:32:
         06:30:19:1d:49:f3:5a:52:4f:7d:92:0f:3d:d7:a6:55:c3:61:
         7e:cd:0f:c6:09:f1:03:30:c7:95:cb:aa:3c:45:7d:2f:d3:20:
         57:cb:d0:38:7f:94:5d:12:94:a6:7f:5d:28:9c:7e:a4:52:9e:
         87:32:75:e7:cc:b4:61:61:fd:88:3e:78:74:e1:48:02:15:47:
         5a:e6:6a:c1:00:87:43:fe:75:b7:2d:dd:f6:8d:42:66:42:73:
         14:64:dc:31:d6:a6:05:69:74:6a:d2:af:17:ac:b5:35:e8:ad:
         47:50:19:6e:5a:01:2e:13:f3:c3:59:cc:e7:89:5c:d2:8e:38:
         bd:c8:b8:57:7b:3a:26:53:f3:0a:58:50:a4:04:38:4f:a9:61:
         13:1e:e7:f3:87:9f:70:50:f4:33:18:43:ef:91:37:e3:1b:08:
         0c:f9:e4:74:d8:3a:fb:ef:73:b1:3c:b1:d9:66:9d:7e:95:77:
         6d:94:80:c3:d9:ce:73:c8:c2:11:a7:a0:d4:65:ff:66:5a:82:
         5a:a6:2a:5e:28:f7:87:3f:07:25:75:50:88:64:8f:a2:d9:a7:
         02:9b:af:78:5a:1f:36:7c:1a:e9:f7:79:d5:91:4b:48:0f:63:
         44:f1:b4:7a:e6:b3:79:9b:ff:6e:32:72:88:b4:f1:f2:04:43:
         05:dc:3a:f5:c7:f8:97:7e:69:46:94:4c:d5:e9:83:2c:ed:57:
         4f:02:7c:4f:f6:6a:23:0d:86:09:7e:30:d0:9f:d4:a5:1d:17:
         cb:45:6c:ea:cc:6f:e3:c4:4c:1a:b3:d2:52:a1:54:85:f3:44:
         a2:c8:d0:56:2e:2a:52:a0:fc:18:d7:df:de:ed:c4:c0:73:47:
         2b:45:89:31:49:9e:60:ca
-----BEGIN CERTIFICATE-----
MIIE/jCCAuagAwIBAgIBATANBgkqhkiG9w0BAQsFADCBoDELMAkGA1UEBhMCVVMx
DTALBgNVBAgMBFV0YWgxDjAMBgNVBAcMBVByb3ZvMRUwEwYDVQQKDAxQaG9lbml4
IFRlYW0xGTAXBgNVBAsMEFB1YmxpYyBSZWxhdGlvbnMxGDAWBgNVBAMMD3Bob2Vu
aXh0ZWFtLm9yZzEmMCQGCSqGSIb3DQEJARYXY29udGFjdEBwaG9lbml4dGVhbS5v
cmcwHhcNMTcwMzIxMDIxMTU2WhcNMTgwMzIxMDIxMTU2WjBYMQswCQYDVQQGEwJV
UzENMAsGA1UECAwEVXRhaDEOMAwGA1UEBwwFUHJvdm8xFDASBgNVBAoMC1VTIENp
dGl6ZW5zMRQwEgYDVQQDDAtNYXJrIE9OZWlsbDCCASIwDQYJKoZIhvcNAQEBBQAD
ggEPADCCAQoCggEBAK+Md2Nd5bAnx9RpyZCq3a6m8reQSE5vVQElfOJM1jYZOHvR
+PPSOEjFHhWOO2cx4TVlsNw7bydVYjCknCyY5YLQmtLpTJiuqcuRJe4UEcgZZYkq
cNHYEuSaig/YBPgmb/MzEC81PXJRbOrPKKTLe3PyR/Gn2GbgqKFzMXLm0PE6AJqo
gVpNoBWxLV6655hO5jN4z6imgaVwF+3+5fWWijxXgfxY31x6qXBtop75jRfEACb3
FA9Ty/+ooIks+79NBu7bLXIDnJ1iSqlG3xUrbB5bixq7Me4PY0VvPVpuX5SmrHfi
MxoAoL5As3MpppF6adoA8LywYfE+YzjhCLHVXFsCAwEAAaOBiTCBhjAdBgNVHQ4E
FgQUYfnAdsA4kw9bTuYPzwT5v9mrvywwHwYDVR0jBBgwFoAUxLoupalHZynCjN8C
GkXf9sqobp0wCQYDVR0TBAIwADALBgNVHQ8EBAMCBaAwLAYJYIZIAYb4QgENBB8W
HU9wZW5TU0wgR2VuZXJhdGVkIENlcnRpZmljYXRlMA0GCSqGSIb3DQEBCwUAA4IC
AQAMvidpoyPeM7u0utS7EaaqOwpJNiCKg5Iv2o8FyNED+LD6M1TScXmOJwI1EBnm
xaNGzP56GsvXKklfIV9KoF4i5iRMe4JqeoHEPPbtPYCwDJsLk/QTn3Ti/t0pKvP+
FAh4rM63JA41U0ujarCr3CjliVNbl3GWVL0Sg/6ads1rCEBJjZkxl7kZZCIlJVby
KPFZX3wMtRCROu9dxna2eOWHKu2vkRWStQ1zEPkK0BVY8k3pjTIGMBkdSfNaUk99
kg8916ZVw2F+zQ/GCfEDMMeVy6o8RX0v0yBXy9A4f5RdEpSmf10onH6kUp6HMnXn
zLRhYf2IPnh04UgCFUda5mrBAIdD/nW3Ld32jUJmQnMUZNwx1qYFaXRq0q8XrLU1
6K1HUBluWgEuE/PDWczniVzSjji9yLhXezomU/MKWFCkBDhPqWETHufzh59wUPQz
GEPvkTfjGwgM+eR02Dr773OxPLHZZp1+lXdtlIDD2c5zyMIRp6DUZf9mWoJapipe
KPeHPwcldVCIZI+i2acCm694Wh82fBrp93nVkUtID2NE8bR65rN5m/9uMnKItPHy
BEMF3Dr1x/iXfmlGlEzV6YMs7VdPAnxP9mojDYYJfjDQn9SlHRfLRWzqzG/jxEwa
s9JSoVSF80SiyNBWLipSoPwY19/e7cTAc0crRYkxSZ5gyg==
-----END CERTIFICATE-----
